(dp1
S'url'
p2
S'http://wswhomo.afip.gov.ar/wsbfe/service.asmx?WSDL'
p3
sS'services'
p4
(dp5
VService
p6
(dp7
S'documentation'
p8
S''
sS'ports'
p9
(dp10
VServiceSoap12
p11
(dp12
S'port_type_name'
p13
S'ServiceSoap'
p14
sS'operations'
p15
(dp16
VBFEGetCMP
p17
(dp18
S'action'
p19
Vhttp://ar.gov.afip.dif.bfe/BFEGetCMP
p20
sS'input'
p21
(dp22
S'BFEGetCMP'
p23
ccopy_reg
_reconstructor
p24
(cpysimplesoap.simplexml
OrderedDict
p25
c__builtin__
dict
p26
(dp27
VAuth
p28
g24
(g25
g26
(dp29
VToken
p30
c__builtin__
unicode
p31
sVSign
p32
g31
sVCuit
p33
c__builtin__
long
p34
stRp35
(dp36
S'array'
p37
I00
sS'_OrderedDict__keys'
p38
(lp39
g30
ag32
ag33
asbsVCmp
p40
g24
(g25
g26
(dp41
VCbte_nro
p42
g34
sVPunto_vta
p43
c__builtin__
int
p44
sVTipo_cbte
p45
(ipysimplesoap.simplexml
Alias
p46
(dp47
S'py_type'
p48
g44
sS'xml_type'
p49
S'short'
p50
sbstRp51
(dp52
g37
I00
sg38
(lp53
g45
ag43
ag42
asbstRp54
(dp55
g37
I00
sg38
(lp56
g28
ag40
asbssg8
VRecupera los datos completos de un comprobante ya autorizado
p57
sS'name'
p58
g17
sS'output'
p59
(dp60
S'BFEGetCMPResponse'
p61
g24
(g25
g26
(dp62
VBFEErr
p63
g24
(g25
g26
(dp64
VErrCode
p65
g44
sVErrMsg
p66
g31
stRp67
(dp68
g37
I00
sg38
(lp69
g65
ag66
asbsVBFEResultGet
p70
g24
(g25
g26
(dp71
VImp_total
p72
(ipysimplesoap.simplexml
Alias
p73
(dp74
g48
c__builtin__
float
p75
sg49
S'double'
p76
sbsVImp_moneda_Id
p77
g31
sVResultado
p78
g31
sVImpto_liq
p79
g73
sVNro_doc
p80
g34
sVItems
p81
(lp82
g24
(g25
g26
(dp83
VItem
p84
g24
(g25
g26
(dp85
VImp_total
p86
g73
sVImp_bonif
p87
g73
sVPro_precio_uni
p88
g73
sVIva_id
p89
g46
sVPro_umed
p90
g44
sVPro_codigo_sec
p91
g31
sVPro_ds
p92
g31
sVPro_codigo_ncm
p93
g31
sVPro_qty
p94
g73
stRp95
(dp96
g37
I00
sg38
(lp97
g93
ag91
ag92
ag94
ag90
ag88
ag87
ag86
ag89
asbstRp98
(dp99
g37
I01
sg38
(lp100
g84
asbasVTipo_doc
p101
g46
sVFecha_cbte_cae
p102
g31
sVImp_op_ex
p103
g73
sVImp_perc
p104
g73
sVImpto_liq_rni
p105
g73
sVTipo_cbte
p106
g46
sVPunto_vta
p107
g44
sVImp_iibb
p108
g73
sVObs
p109
g31
sVCae
p110
g31
sVImp_perc_mun
p111
g73
sVCuit
p112
g34
sVCbte_nro
p113
g34
sVImp_internos
p114
g73
sVFch_venc_Cae
p115
g31
sVImp_tot_conc
p116
g73
sVImp_neto
p117
g73
sVImp_moneda_ctz
p118
g73
sVFecha_cbte_orig
p119
g31
sVId
p120
g34
stRp121
(dp122
g37
I00
sg38
(lp123
g120
ag112
ag101
ag80
ag106
ag107
ag113
ag72
ag116
ag117
ag79
ag105
ag103
ag104
ag108
ag111
ag114
ag77
ag118
ag119
ag102
ag115
ag110
ag78
ag109
ag81
asbsVBFEEvents
p124
g24
(g25
g26
(dp125
VEventMsg
p126
g31
sVEventCode
p127
g44
stRp128
(dp129
g37
I00
sg38
(lp130
g127
ag126
asbstRp131
(dp132
g37
I00
sg38
(lp133
g70
ag63
ag124
asbsssVBFEGetLast_ID
p134
(dp135
g19
Vhttp://ar.gov.afip.dif.bfe/BFEGetLast_ID
p136
sg21
(dp137
S'BFEGetLast_ID'
p138
g24
(g25
g26
(dp139
VAuth
p140
g35
stRp141
(dp142
g37
I00
sg38
(lp143
g140
asbssg8
VRecupera el ultimo ID y su  fecha 
p144
sg58
g134
sg59
(dp145
S'BFEGetLast_IDResponse'
p146
g24
(g25
g26
(dp147
VBFEGetLast_IDResult
p148
g24
(g25
g26
(dp149
VBFEErr
p150
g67
sVBFEResultGet
p151
g24
(g25
g26
(dp152
VId
p153
g34
stRp154
(dp155
g37
I00
sg38
(lp156
g153
asbsVBFEEvents
p157
g128
stRp158
(dp159
g37
I00
sg38
(lp160
g151
ag150
ag157
asbstRp161
(dp162
g37
I00
sg38
(lp163
g148
asbsssVBFEGetPARAM_NCM
p164
(dp165
g19
Vhttp://ar.gov.afip.dif.bfe/BFEGetPARAM_NCM
p166
sg21
(dp167
S'BFEGetPARAM_NCM'
p168
g24
(g25
g26
(dp169
VAuth
p170
g35
stRp171
(dp172
g37
I00
sg38
(lp173
g170
asbssg8
VRecupera el listado de productos y su codigo utilizables en servicio de autorizacion
p174
sg58
g164
sg59
(dp175
S'BFEGetPARAM_NCMResponse'
p176
g24
(g25
g26
(dp177
VBFEGetPARAM_NCMResult
p178
g24
(g25
g26
(dp179
VBFEErr
p180
g67
sVBFEResultGet
p181
(lp182
g24
(g25
g26
(dp183
VClsBFEResponse_NCM
p184
g24
(g25
g26
(dp185
VNCM_vig_desde
p186
g31
sVNCM_Nota
p187
g31
sVNCM_Codigo
p188
g31
sVNCM_Ds
p189
g31
sVNCM_vig_hasta
p190
g31
stRp191
(dp192
g37
I00
sg38
(lp193
g188
ag189
ag187
ag186
ag190
asbstRp194
(dp195
g37
I01
sg38
(lp196
g184
asbasVBFEEvents
p197
g128
stRp198
(dp199
g37
I00
sg38
(lp200
g181
ag180
ag197
asbstRp201
(dp202
g37
I00
sg38
(lp203
g178
asbsssVBFEGetPARAM_Tipo_doc
p204
(dp205
g19
Vhttp://ar.gov.afip.dif.bfe/BFEGetPARAM_Tipo_doc
p206
sg21
(dp207
S'BFEGetPARAM_Tipo_doc'
p208
g24
(g25
g26
(dp209
Vauth
p210
g35
stRp211
(dp212
g37
I00
sg38
(lp213
g210
asbssg8
VRecupera el listado de los  tipos de comprobante  y su codigo utilizables en servicio de autorizacion
p214
sg58
g204
sg59
(dp215
S'BFEGetPARAM_Tipo_docResponse'
p216
g24
(g25
g26
(dp217
VBFEGetPARAM_Tipo_docResult
p218
g24
(g25
g26
(dp219
VBFEErr
p220
g67
sVBFEResultGet
p221
(lp222
g24
(g25
g26
(dp223
VClsBFEResponse_Tipo_doc
p224
g24
(g25
g26
(dp225
VDoc_Ds
p226
g31
sVDoc_Id
p227
g46
sVDoc_vig_desde
p228
g31
sVDoc_vig_hasta
p229
g31
stRp230
(dp231
g37
I00
sg38
(lp232
g227
ag226
ag228
ag229
asbstRp233
(dp234
g37
I01
sg38
(lp235
g224
asbasVBFEEvents
p236
g128
stRp237
(dp238
g37
I00
sg38
(lp239
g221
ag220
ag236
asbstRp240
(dp241
g37
I00
sg38
(lp242
g218
asbsssVBFEDummy
p243
(dp244
g19
Vhttp://ar.gov.afip.dif.bfe/BFEDummy
p245
sg21
(dp246
S'BFEDummy'
p247
Nssg8
VMetodo dummy para verificacion de funcionamiento
p248
sg58
VBFEDummy
p249
sg59
(dp250
S'BFEDummyResponse'
p251
g24
(g25
g26
(dp252
VBFEDummyResult
p253
g24
(g25
g26
(dp254
VAppServer
p255
g31
sVDbServer
p256
g31
sVAuthServer
p257
g31
stRp258
(dp259
g37
I00
sg38
(lp260
g255
ag256
ag257
asbstRp261
(dp262
g37
I00
sg38
(lp263
g253
asbsssVBFEGetPARAM_Zonas
p264
(dp265
g19
Vhttp://ar.gov.afip.dif.bfe/BFEGetPARAM_Zonas
p266
sg21
(dp267
S'BFEGetPARAM_Zonas'
p268
g24
(g25
g26
(dp269
Vauth
p270
g35
stRp271
(dp272
g37
I00
sg38
(lp273
g270
asbssg8
VRecupera el listado de las alicuotas de IVA  y su codigo utilizables en servicio de autorizacion
p274
sg58
g264
sg59
(dp275
S'BFEGetPARAM_ZonasResponse'
p276
g24
(g25
g26
(dp277
VBFEGetPARAM_ZonasResult
p278
g24
(g25
g26
(dp279
VBFEErr
p280
g67
sVBFEResultGet
p281
(lp282
g24
(g25
g26
(dp283
VClsBFEResponse_Zon
p284
g24
(g25
g26
(dp285
VZon_Id
p286
g46
sVZon_vig_desde
p287
g31
sVZon_Ds
p288
g31
sVZon_vig_hasta
p289
g31
stRp290
(dp291
g37
I00
sg38
(lp292
g286
ag288
ag287
ag289
asbstRp293
(dp294
g37
I01
sg38
(lp295
g284
asbasVBFEEvents
p296
g128
stRp297
(dp298
g37
I00
sg38
(lp299
g281
ag280
ag296
asbstRp300
(dp301
g37
I00
sg38
(lp302
g278
asbsssVBFEGetLast_CMP
p303
(dp304
g19
Vhttp://ar.gov.afip.dif.bfe/BFEGetLast_CMP
p305
sg21
(dp306
S'BFEGetLast_CMP'
p307
g24
(g25
g26
(dp308
VAuth
p309
g24
(g25
g26
(dp310
VPto_venta
p311
g46
sVToken
p312
g31
sVSign
p313
g31
sVTipo_cbte
p314
g46
sVCuit
p315
g34
stRp316
(dp317
g37
I00
sg38
(lp318
g312
ag313
ag315
ag311
ag314
asbstRp319
(dp320
g37
I00
sg38
(lp321
g309
asbssg8
VRecupera el ultimos comprobante autorizado
p322
sg58
g303
sg59
(dp323
S'BFEGetLast_CMPResponse'
p324
g24
(g25
g26
(dp325
VBFEGetLast_CMPResult
p326
g24
(g25
g26
(dp327
VBFEErr
p328
g67
sVBFEResult_LastCMP
p329
g24
(g25
g26
(dp330
VCbte_nro
p331
g34
sVCbte_fecha
p332
g31
stRp333
(dp334
g37
I00
sg38
(lp335
g331
ag332
asbsVBFEEvents
p336
g128
stRp337
(dp338
g37
I00
sg38
(lp339
g329
ag328
ag336
asbstRp340
(dp341
g37
I00
sg38
(lp342
g326
asbsssVBFEGetPARAM_UMed
p343
(dp344
g19
Vhttp://ar.gov.afip.dif.bfe/BFEGetPARAM_UMed
p345
sg21
(dp346
S'BFEGetPARAM_UMed'
p347
g24
(g25
g26
(dp348
Vauth
p349
g35
stRp350
(dp351
g37
I00
sg38
(lp352
g349
asbssg8
VRecupera el listado de las unidades de medida  y su codigo utilizables en servicio de autorizacion
p353
sg58
g343
sg59
(dp354
S'BFEGetPARAM_UMedResponse'
p355
g24
(g25
g26
(dp356
VBFEGetPARAM_UMedResult
p357
g24
(g25
g26
(dp358
VBFEErr
p359
g67
sVBFEResultGet
p360
(lp361
g24
(g25
g26
(dp362
VClsBFEResponse_UMed
p363
g24
(g25
g26
(dp364
VUmed_Id
p365
g46
sVUmed_Ds
p366
g31
sVUmed_vig_desde
p367
g31
sVUmed_vig_hasta
p368
g31
stRp369
(dp370
g37
I00
sg38
(lp371
g365
ag366
ag367
ag368
asbstRp372
(dp373
g37
I01
sg38
(lp374
g363
asbasVBFEEvents
p375
g128
stRp376
(dp377
g37
I00
sg38
(lp378
g360
ag359
ag375
asbstRp379
(dp380
g37
I00
sg38
(lp381
g357
asbsssVBFEGetPARAM_MON
p382
(dp383
g19
Vhttp://ar.gov.afip.dif.bfe/BFEGetPARAM_MON
p384
sg21
(dp385
S'BFEGetPARAM_MON'
p386
g24
(g25
g26
(dp387
Vauth
p388
g35
stRp389
(dp390
g37
I00
sg38
(lp391
g388
asbssg8
VRecupera el listado  de monedas y su codigo utilizables en servicio de autorizacion
p392
sg58
g382
sg59
(dp393
S'BFEGetPARAM_MONResponse'
p394
g24
(g25
g26
(dp395
VBFEGetPARAM_MONResult
p396
g24
(g25
g26
(dp397
VBFEErr
p398
g67
sVBFEResultGet
p399
(lp400
g24
(g25
g26
(dp401
VClsBFEResponse_Mon
p402
g24
(g25
g26
(dp403
VMon_Id
p404
g31
sVMon_vig_desde
p405
g31
sVMon_Ds
p406
g31
sVMon_vig_hasta
p407
g31
stRp408
(dp409
g37
I00
sg38
(lp410
g404
ag406
ag405
ag407
asbstRp411
(dp412
g37
I01
sg38
(lp413
g402
asbasVBFEEvents
p414
g128
stRp415
(dp416
g37
I00
sg38
(lp417
g399
ag398
ag414
asbstRp418
(dp419
g37
I00
sg38
(lp420
g396
asbsssVBFEGetPARAM_Tipo_IVA
p421
(dp422
g19
Vhttp://ar.gov.afip.dif.bfe/BFEGetPARAM_Tipo_IVA
p423
sg21
(dp424
S'BFEGetPARAM_Tipo_IVA'
p425
g24
(g25
g26
(dp426
Vauth
p427
g35
stRp428
(dp429
g37
I00
sg38
(lp430
g427
asbssg8
VRecupera el listado de las alicuotas de IVA  y su codigo utilizables en servicio de autorizacion
p431
sg58
g421
sg59
(dp432
S'BFEGetPARAM_Tipo_IVAResponse'
p433
g24
(g25
g26
(dp434
VBFEGetPARAM_Tipo_IVAResult
p435
g24
(g25
g26
(dp436
VBFEErr
p437
g67
sVBFEResultGet
p438
(lp439
g24
(g25
g26
(dp440
VClsBFEResponse_Tipo_IVA
p441
g24
(g25
g26
(dp442
VIVA_Id
p443
g46
sVIVA_vig_desde
p444
g31
sVIVA_Ds
p445
g31
sVIVA_vig_hasta
p446
g31
stRp447
(dp448
g37
I00
sg38
(lp449
g443
ag445
ag444
ag446
asbstRp450
(dp451
g37
I01
sg38
(lp452
g441
asbasVBFEEvents
p453
g128
stRp454
(dp455
g37
I00
sg38
(lp456
g438
ag437
ag453
asbstRp457
(dp458
g37
I00
sg38
(lp459
g435
asbsssVBFEAuthorize
p460
(dp461
g19
Vhttp://ar.gov.afip.dif.bfe/BFEAuthorize
p462
sg21
(dp463
S'BFEAuthorize'
p464
g24
(g25
g26
(dp465
VAuth
p466
g35
sVCmp
p467
g24
(g25
g26
(dp468
VImp_total
p469
g73
sVImp_moneda_Id
p470
g31
sVZona
p471
g46
sVImpto_liq
p472
g73
sVTipo_doc
p473
g46
sVNro_doc
p474
g34
sVPunto_vta
p475
g44
sVTipo_cbte
p476
g46
sVImp_op_ex
p477
g73
sVImp_perc
p478
g73
sVImpto_liq_rni
p479
g73
sVImp_iibb
p480
g73
sVItems
p481
(lp482
g98
asVImp_tot_conc
p483
g73
sVFecha_cbte
p484
g31
sVCbte_nro
p485
g34
sVImp_internos
p486
g73
sVImp_perc_mun
p487
g73
sVImp_neto
p488
g73
sVImp_moneda_ctz
p489
g73
sVId
p490
g34
stRp491
(dp492
g37
I00
sg38
(lp493
g490
ag473
ag474
ag471
ag476
ag475
ag485
ag469
ag483
ag488
ag472
ag479
ag477
ag478
ag480
ag487
ag486
ag470
ag489
ag484
ag481
asbstRp494
(dp495
g37
I00
sg38
(lp496
g466
ag467
asbssg8
VAutoriza un comprobante, devolviendo  su CAE correspondiente
p497
sg58
g460
sg59
(dp498
S'BFEAuthorizeResponse'
p499
g24
(g25
g26
(dp500
VBFEAuthorizeResult
p501
g24
(g25
g26
(dp502
VBFEErr
p503
g67
sVBFEResultAuth
p504
g24
(g25
g26
(dp505
VResultado
p506
g31
sVCuit
p507
g34
sVId
p508
g34
sVFch_cbte
p509
g31
sVFch_venc_Cae
p510
g31
sVReproceso
p511
g31
sVObs
p512
g31
sVCae
p513
g31
stRp514
(dp515
g37
I00
sg38
(lp516
g508
ag507
ag513
ag510
ag509
ag506
ag511
ag512
asbsVBFEEvents
p517
g128
stRp518
(dp519
g37
I00
sg38
(lp520
g504
ag503
ag517
asbstRp521
(dp522
g37
I00
sg38
(lp523
g501
asbsssVBFEGetPARAM_Tipo_Cbte
p524
(dp525
g19
Vhttp://ar.gov.afip.dif.bfe/BFEGetPARAM_Tipo_Cbte
p526
sg21
(dp527
S'BFEGetPARAM_Tipo_Cbte'
p528
g24
(g25
g26
(dp529
Vauth
p530
g35
stRp531
(dp532
g37
I00
sg38
(lp533
g530
asbssg8
VRecupera el listado de los tipos de comprobante  y su codigo utilizables en servicio de autorizacion
p534
sg58
g524
sg59
(dp535
S'BFEGetPARAM_Tipo_CbteResponse'
p536
g24
(g25
g26
(dp537
VBFEGetPARAM_Tipo_CbteResult
p538
g24
(g25
g26
(dp539
VBFEErr
p540
g67
sVBFEResultGet
p541
(lp542
g24
(g25
g26
(dp543
VClsBFEResponse_Tipo_Cbte
p544
g24
(g25
g26
(dp545
VCbte_Ds
p546
g31
sVCbte_vig_hasta
p547
g31
sVCbte_Id
p548
g46
sVCbte_vig_desde
p549
g31
stRp550
(dp551
g37
I00
sg38
(lp552
g548
ag546
ag549
ag547
asbstRp553
(dp554
g37
I01
sg38
(lp555
g544
asbasVBFEEvents
p556
g128
stRp557
(dp558
g37
I00
sg38
(lp559
g541
ag540
ag556
asbstRp560
(dp561
g37
I00
sg38
(lp562
g538
asbssssS'location'
p563
Vhttp://wswhomo.afip.gov.ar/wsbfe/service.asmx
p564
sS'service_name'
p565
g6
sS'soap_uri'
p566
Vhttp://schemas.xmlsoap.org/wsdl/soap12/
p567
sS'soap_ver'
p568
S'soap12'
p569
sS'transport'
p570
Vhttp://schemas.xmlsoap.org/soap/http
p571
ssVServiceHttpGet
p572
(dp573
g13
S'ServiceHttpGet'
p574
sg15
(dp575
VBFEDummy
p576
g244
ssg563
Nsg565
g6
sg566
Nsg568
Nsg570
NssVServiceHttpPost
p577
(dp578
g13
S'ServiceHttpPost'
p579
sg15
(dp580
g249
g244
ssg563
Nsg565
g6
sg566
Nsg568
Nsg570
NssVServiceSoap
p581
(dp582
g13
S'ServiceSoap'
p583
sg15
(dp584
VBFEGetCMP
p585
g18
sVBFEGetLast_ID
p586
g135
sVBFEGetPARAM_NCM
p587
g165
sVBFEGetPARAM_Tipo_doc
p588
g205
sVBFEDummy
p589
g244
sVBFEGetPARAM_Zonas
p590
g265
sVBFEGetLast_CMP
p591
g304
sVBFEGetPARAM_UMed
p592
g344
sVBFEGetPARAM_MON
p593
g383
sVBFEGetPARAM_Tipo_IVA
p594
g422
sVBFEAuthorize
p595
g461
sVBFEGetPARAM_Tipo_Cbte
p596
g525
ssg563
Vhttp://wswhomo.afip.gov.ar/wsbfe/service.asmx
p597
sg565
g6
sg566
Vhttp://schemas.xmlsoap.org/wsdl/soap/
p598
sg568
S'soap11'
p599
sg570
Vhttp://schemas.xmlsoap.org/soap/http
p600
sssssS'version'
p601
S'1.03f'
p602
sS'namespace'
p603
Vhttp://ar.gov.afip.dif.bfe/
p604
sg8
VWeb Service orientado  al  servicio  de Bonos Fiscales electronicos
p605
s.