(dp1
S'url'
p2
S'https://fwshomo.afip.gov.ar/wsmtxca/services/MTXCAService?wsdl'
p3
sS'services'
p4
(dp5
VMTXCAService
p6
(dp7
S'documentation'
p8
S''
sS'ports'
p9
(dp10
VMTXCAServiceHttpSoap11Endpoint
p11
(dp12
S'port_type_name'
p13
S'MTXCAServicePortType'
p14
sS'operations'
p15
(dp16
VconsultarPuntosVenta
p17
(dp18
S'action'
p19
Vhttp://impl.service.wsmtxca.afip.gov.ar/service/consultarPuntosVenta
p20
sS'input'
p21
(dp22
S'consultarPuntosVentaRequest'
p23
ccopy_reg
_reconstructor
p24
(cpysimplesoap.simplexml
OrderedDict
p25
c__builtin__
dict
p26
(dp27
VauthRequest
p28
g24
(g25
g26
(dp29
Vtoken
p30
c__builtin__
unicode
p31
sVcuitRepresentada
p32
c__builtin__
long
p33
sVsign
p34
g31
stRp35
(dp36
S'array'
p37
I00
sS'_OrderedDict__keys'
p38
(lp39
g30
ag34
ag32
asbstRp40
(dp41
g37
I00
sg38
(lp42
g28
asbssg8
V
sS'name'
p43
g17
sS'output'
p44
(dp45
S'consultarPuntosVentaResponse'
p46
g24
(g25
g26
(dp47
Vevento
p48
g24
(g25
g26
(dp49
Vdescripcion
p50
g31
sVcodigo
p51
(ipysimplesoap.simplexml
Alias
p52
(dp53
S'py_type'
p54
c__builtin__
int
p55
sS'xml_type'
p56
S'short'
p57
sbstRp58
(dp59
g37
I00
sg38
(lp60
g51
ag50
asbsVarrayPuntosVenta
p61
(lp62
g24
(g25
g26
(dp63
VpuntoVenta
p64
g24
(g25
g26
(dp65
VfechaBaja
p66
cdatetime
date
p67
sVnumeroPuntoVenta
p68
g52
sVbloqueado
p69
g31
stRp70
(dp71
g37
I00
sg38
(lp72
g68
ag69
ag66
asbstRp73
(dp74
g37
I01
sg38
(lp75
g64
asbastRp76
(dp77
g37
I00
sg38
(lp78
g61
ag48
asbsssVconsultarCAEAEntreFechas
p79
(dp80
g19
Vhttp://impl.service.wsmtxca.afip.gov.ar/service/consultarCAEAEntreFechas
p81
sg21
(dp82
S'consultarCAEAEntreFechasRequest'
p83
g24
(g25
g26
(dp84
VauthRequest
p85
g35
sVfechaDesde
p86
g67
sVfechaHasta
p87
g67
stRp88
(dp89
g37
I00
sg38
(lp90
g85
ag86
ag87
asbssg8
V
sg43
g79
sg44
(dp91
S'consultarCAEAEntreFechasResponse'
p92
g24
(g25
g26
(dp93
Vevento
p94
g58
sVarrayErrores
p95
(lp96
g24
(g25
g26
(dp97
VcodigoDescripcion
p98
g58
stRp99
(dp100
g37
I01
sg38
(lp101
g98
asbasVarrayCAEAResponse
p102
(lp103
g24
(g25
g26
(dp104
VCAEAResponse
p105
g24
(g25
g26
(dp106
Vorden
p107
g52
sVfechaDesde
p108
g67
sVfechaTopeInforme
p109
g67
sVfechaHasta
p110
g67
sVfechaProceso
p111
g67
sVperiodo
p112
g55
sVCAEA
p113
g33
stRp114
(dp115
g37
I00
sg38
(lp116
g111
ag113
ag112
ag107
ag108
ag110
ag109
asbstRp117
(dp118
g37
I01
sg38
(lp119
g105
asbastRp120
(dp121
g37
I00
sg38
(lp122
g102
ag95
ag94
asbsssVconsultarCAEA
p123
(dp124
g19
Vhttp://impl.service.wsmtxca.afip.gov.ar/service/consultarCAEA
p125
sg21
(dp126
S'consultarCAEARequest'
p127
g24
(g25
g26
(dp128
VauthRequest
p129
g35
sVCAEA
p130
g33
stRp131
(dp132
g37
I00
sg38
(lp133
g129
ag130
asbssg8
V
sg43
g123
sg44
(dp134
S'consultarCAEAResponse'
p135
g24
(g25
g26
(dp136
Vevento
p137
g58
sVCAEAResponse
p138
g114
sVarrayErrores
p139
(lp140
g99
astRp141
(dp142
g37
I00
sg38
(lp143
g138
ag139
ag137
asbsssVinformarAjusteIVACAEA
p144
(dp145
g19
Vhttp://impl.service.wsmtxca.afip.gov.ar/service/informarAjusteIVACAEA
p146
sg21
(dp147
S'informarAjusteIVACAEARequest'
p148
g24
(g25
g26
(dp149
VcomprobanteCAEARequest
p150
g24
(g25
g26
(dp151
VcodigoConcepto
p152
g52
sVfechaEmision
p153
g67
sVarrayOtrosTributos
p154
(lp155
g24
(g25
g26
(dp156
VotroTributo
p157
g24
(g25
g26
(dp158
Vdescripcion
p159
g31
sVbaseImponible
p160
cdecimal
Decimal
p161
sVcodigo
p162
g52
sVimporte
p163
g161
stRp164
(dp165
g37
I00
sg38
(lp166
g162
ag159
ag160
ag163
asbstRp167
(dp168
g37
I01
sg38
(lp169
g157
asbasVimporteSubtotal
p170
g161
sVarrayDatosAdicionales
p171
(lp172
g24
(g25
g26
(dp173
VdatoAdicional
p174
g24
(g25
g26
(dp175
Vt
g52
sVc3
p176
g31
sVc2
p177
g31
sVc1
p178
g31
sVc6
p179
g31
sVc5
p180
g31
sVc4
p181
g31
stRp182
(dp183
g37
I00
sg38
(lp184
Vt
ag178
ag177
ag176
ag181
ag180
ag179
asbstRp185
(dp186
g37
I01
sg38
(lp187
g174
asbasVobservaciones
p188
g31
sVimporteNoGravado
p189
g161
sVcodigoTipoComprobante
p190
g52
sVimporteExento
p191
g161
sVarraySubtotalesIVA
p192
(lp193
g24
(g25
g26
(dp194
VsubtotalIVA
p195
g24
(g25
g26
(dp196
Vcodigo
p197
g52
sVimporte
p198
g161
stRp199
(dp200
g37
I00
sg38
(lp201
g197
ag198
asbstRp202
(dp203
g37
I01
sg38
(lp204
g195
asbasVimporteGravado
p205
g161
sVfechaServicioHasta
p206
g67
sVfechaVencimiento
p207
g67
sVnumeroDocumento
p208
g33
sVfechaServicioDesde
p209
g67
sVnumeroComprobante
p210
g33
sVnumeroPuntoVenta
p211
g52
sVfechaVencimientoPago
p212
g67
sVcodigoTipoAutorizacion
p213
g31
sVimporteOtrosTributos
p214
g161
sVimporteTotal
p215
g161
sVcodigoMoneda
p216
g31
sVcotizacionMoneda
p217
g161
sVcodigoTipoDocumento
p218
g52
sVcodigoAutorizacion
p219
g33
sVarrayComprobantesAsociados
p220
(lp221
g24
(g25
g26
(dp222
VcomprobanteAsociado
p223
g24
(g25
g26
(dp224
VnumeroComprobante
p225
g33
sVnumeroPuntoVenta
p226
g52
sVcodigoTipoComprobante
p227
g52
stRp228
(dp229
g37
I00
sg38
(lp230
g227
ag226
ag225
asbstRp231
(dp232
g37
I01
sg38
(lp233
g223
asbasVarrayItems
p234
(lp235
g24
(g25
g26
(dp236
Vitem
p237
g24
(g25
g26
(dp238
VunidadesMtx
p239
g55
sVcodigo
p240
g31
sVcantidad
p241
g161
sVimporteItem
p242
g161
sVimporteBonificacion
p243
g161
sVcodigoUnidadMedida
p244
g52
sVimporteIVA
p245
g161
sVprecioUnitario
p246
g161
sVdescripcion
p247
g31
sVcodigoCondicionIVA
p248
g52
sVcodigoMtx
p249
g31
stRp250
(dp251
g37
I00
sg38
(lp252
g239
ag249
ag240
ag247
ag241
ag244
ag246
ag243
ag248
ag245
ag242
asbstRp253
(dp254
g37
I01
sg38
(lp255
g237
asbastRp256
(dp257
g37
I00
sg38
(lp258
g190
ag211
ag210
ag153
ag213
ag219
ag207
ag218
ag208
ag205
ag189
ag191
ag170
ag214
ag215
ag216
ag217
ag188
ag152
ag209
ag206
ag212
ag220
ag154
ag234
ag192
ag171
asbsVauthRequest
p259
g35
stRp260
(dp261
g37
I00
sg38
(lp262
g259
ag150
asbssg8
V
sg43
g144
sg44
(dp263
S'informarAjusteIVACAEAResponse'
p264
g24
(g25
g26
(dp265
VarrayObservaciones
p266
(lp267
g99
asVevento
p268
g58
sVresultado
p269
g31
sVfechaProceso
p270
g67
sVarrayErrores
p271
(lp272
g99
asVcomprobanteCAEAResponse
p273
g24
(g25
g26
(dp274
VCAEA
p275
g33
sVnumeroComprobante
p276
g33
sVnumeroPuntoVenta
p277
g52
sVcodigoTipoComprobante
p278
g52
stRp279
(dp280
g37
I00
sg38
(lp281
g275
ag278
ag277
ag276
asbstRp282
(dp283
g37
I00
sg38
(lp284
g269
ag270
ag273
ag266
ag271
ag268
asbsssVconsultarMonedas
p285
(dp286
g19
Vhttp://impl.service.wsmtxca.afip.gov.ar/service/consultarMonedas
p287
sg21
(dp288
S'consultarMonedasRequest'
p289
g24
(g25
g26
(dp290
VauthRequest
p291
g35
stRp292
(dp293
g37
I00
sg38
(lp294
g291
asbssg8
V
sg43
g285
sg44
(dp295
S'consultarMonedasResponse'
p296
g24
(g25
g26
(dp297
Vevento
p298
g58
sVarrayMonedas
p299
(lp300
g24
(g25
g26
(dp301
VcodigoDescripcion
p302
g24
(g25
g26
(dp303
Vdescripcion
p304
g31
sVcodigo
p305
g31
stRp306
(dp307
g37
I00
sg38
(lp308
g305
ag304
asbstRp309
(dp310
g37
I01
sg38
(lp311
g302
asbastRp312
(dp313
g37
I00
sg38
(lp314
g299
ag298
asbsssVconsultarTiposDocumento
p315
(dp316
g19
Vhttp://impl.service.wsmtxca.afip.gov.ar/service/consultarTiposDocumento
p317
sg21
(dp318
S'consultarTiposDocumentoRequest'
p319
g24
(g25
g26
(dp320
VauthRequest
p321
g35
stRp322
(dp323
g37
I00
sg38
(lp324
g321
asbssg8
V
sg43
g315
sg44
(dp325
S'consultarTiposDocumentoResponse'
p326
g24
(g25
g26
(dp327
VarrayTiposDocumento
p328
(lp329
g99
asVevento
p330
g58
stRp331
(dp332
g37
I00
sg38
(lp333
g328
ag330
asbsssVconsultarUnidadesMedida
p334
(dp335
g19
Vhttp://impl.service.wsmtxca.afip.gov.ar/service/consultarUnidadesMedida
p336
sg21
(dp337
S'consultarUnidadesMedidaRequest'
p338
g24
(g25
g26
(dp339
VauthRequest
p340
g35
stRp341
(dp342
g37
I00
sg38
(lp343
g340
asbssg8
V
sg43
g334
sg44
(dp344
S'consultarUnidadesMedidaResponse'
p345
g24
(g25
g26
(dp346
Vevento
p347
g58
sVarrayUnidadesMedida
p348
(lp349
g99
astRp350
(dp351
g37
I00
sg38
(lp352
g348
ag347
asbsssVconsultarUltimoComprobanteAutorizado
p353
(dp354
g19
Vhttp://impl.service.wsmtxca.afip.gov.ar/service/consultarUltimoComprobanteAutorizado
p355
sg21
(dp356
S'consultarUltimoComprobanteAutorizadoRequest'
p357
g24
(g25
g26
(dp358
VauthRequest
p359
g35
sVconsultaUltimoComprobanteAutorizadoRequest
p360
g24
(g25
g26
(dp361
VnumeroPuntoVenta
p362
g52
sVcodigoTipoComprobante
p363
g52
stRp364
(dp365
g37
I00
sg38
(lp366
g363
ag362
asbstRp367
(dp368
g37
I00
sg38
(lp369
g359
ag360
asbssg8
V
sg43
g353
sg44
(dp370
S'consultarUltimoComprobanteAutorizadoResponse'
p371
g24
(g25
g26
(dp372
Vevento
p373
g58
sVnumeroComprobante
p374
g33
sVarrayErrores
p375
(lp376
g99
astRp377
(dp378
g37
I00
sg38
(lp379
g374
ag375
ag373
asbsssVconsultarAlicuotasIVA
p380
(dp381
g19
Vhttp://impl.service.wsmtxca.afip.gov.ar/service/consultarAlicuotasIVA
p382
sg21
(dp383
S'consultarAlicuotasIVARequest'
p384
g24
(g25
g26
(dp385
VauthRequest
p386
g35
stRp387
(dp388
g37
I00
sg38
(lp389
g386
asbssg8
V
sg43
g380
sg44
(dp390
S'consultarAlicuotasIVAResponse'
p391
g24
(g25
g26
(dp392
Vevento
p393
g58
sVarrayAlicuotasIVA
p394
(lp395
g99
astRp396
(dp397
g37
I00
sg38
(lp398
g394
ag393
asbsssVautorizarAjusteIVA
p399
(dp400
g19
Vhttp://impl.service.wsmtxca.afip.gov.ar/service/autorizarAjusteIVA
p401
sg21
(dp402
S'autorizarAjusteIVARequest'
p403
g24
(g25
g26
(dp404
VauthRequest
p405
g35
sVcomprobanteCAERequest
p406
g256
stRp407
(dp408
g37
I00
sg38
(lp409
g405
ag406
asbssg8
V
sg43
g399
sg44
(dp410
S'autorizarAjusteIVAResponse'
p411
g24
(g25
g26
(dp412
VarrayObservaciones
p413
(lp414
g99
asVevento
p415
g58
sVresultado
p416
g31
sVarrayErrores
p417
(lp418
g99
asVcomprobanteResponse
p419
g24
(g25
g26
(dp420
VfechaEmision
p421
g67
sVnumeroComprobante
p422
g33
sVnumeroPuntoVenta
p423
g52
sVCAE
p424
g33
sVcuit
p425
g33
sVfechaVencimientoCAE
p426
g67
sVcodigoTipoComprobante
p427
g52
stRp428
(dp429
g37
I00
sg38
(lp430
g425
ag427
ag423
ag422
ag421
ag424
ag426
asbstRp431
(dp432
g37
I00
sg38
(lp433
g416
ag419
ag413
ag417
ag415
asbsssVconsultarCondicionesIVA
p434
(dp435
g19
Vhttp://impl.service.wsmtxca.afip.gov.ar/service/consultarCondicionesIVA
p436
sg21
(dp437
S'consultarCondicionesIVARequest'
p438
g24
(g25
g26
(dp439
VauthRequest
p440
g35
stRp441
(dp442
g37
I00
sg38
(lp443
g440
asbssg8
V
sg43
g434
sg44
(dp444
S'consultarCondicionesIVAResponse'
p445
g24
(g25
g26
(dp446
VarrayCondicionesIVA
p447
(lp448
g99
asVevento
p449
g58
stRp450
(dp451
g37
I00
sg38
(lp452
g447
ag449
asbsssVinformarComprobanteCAEA
p453
(dp454
g19
Vhttp://impl.service.wsmtxca.afip.gov.ar/service/informarComprobanteCAEA
p455
sg21
(dp456
S'informarComprobanteCAEARequest'
p457
g24
(g25
g26
(dp458
VcomprobanteCAEARequest
p459
g256
sVauthRequest
p460
g35
stRp461
(dp462
g37
I00
sg38
(lp463
g460
ag459
asbssg8
V
sg43
g453
sg44
(dp464
S'informarComprobanteCAEAResponse'
p465
g24
(g25
g26
(dp466
VarrayObservaciones
p467
(lp468
g99
asVevento
p469
g58
sVresultado
p470
g31
sVfechaProceso
p471
g67
sVarrayErrores
p472
(lp473
g99
asVcomprobanteCAEAResponse
p474
g279
stRp475
(dp476
g37
I00
sg38
(lp477
g470
ag471
ag474
ag467
ag472
ag469
asbsssVconsultarTiposComprobante
p478
(dp479
g19
Vhttp://impl.service.wsmtxca.afip.gov.ar/service/consultarTiposComprobante
p480
sg21
(dp481
S'consultarTiposComprobanteRequest'
p482
g24
(g25
g26
(dp483
VauthRequest
p484
g35
stRp485
(dp486
g37
I00
sg38
(lp487
g484
asbssg8
V
sg43
g478
sg44
(dp488
S'consultarTiposComprobanteResponse'
p489
g24
(g25
g26
(dp490
Vevento
p491
g58
sVarrayTiposComprobante
p492
(lp493
g99
astRp494
(dp495
g37
I00
sg38
(lp496
g492
ag491
asbsssVautorizarComprobante
p497
(dp498
g19
Vhttp://impl.service.wsmtxca.afip.gov.ar/service/autorizarComprobante
p499
sg21
(dp500
S'autorizarComprobanteRequest'
p501
g24
(g25
g26
(dp502
VauthRequest
p503
g35
sVcomprobanteCAERequest
p504
g256
stRp505
(dp506
g37
I00
sg38
(lp507
g503
ag504
asbssg8
V
sg43
g497
sg44
(dp508
S'autorizarComprobanteResponse'
p509
g24
(g25
g26
(dp510
VarrayObservaciones
p511
(lp512
g99
asVevento
p513
g58
sVresultado
p514
g31
sVarrayErrores
p515
(lp516
g99
asVcomprobanteResponse
p517
g428
stRp518
(dp519
g37
I00
sg38
(lp520
g514
ag517
ag511
ag515
ag513
asbsssVconsultarPuntosVentaCAEA
p521
(dp522
g19
Vhttp://impl.service.wsmtxca.afip.gov.ar/service/consultarPuntosVentaCAEA
p523
sg21
(dp524
S'consultarPuntosVentaCAEARequest'
p525
g24
(g25
g26
(dp526
VauthRequest
p527
g35
stRp528
(dp529
g37
I00
sg38
(lp530
g527
asbssg8
V
sg43
g521
sg44
(dp531
S'consultarPuntosVentaCAEAResponse'
p532
g24
(g25
g26
(dp533
g48
g58
sg61
g62
stRp534
(dp535
g37
I00
sg38
(lp536
g61
ag48
asbsssVinformarCAEANoUtilizadoPtoVta
p537
(dp538
g19
Vhttp://impl.service.wsmtxca.afip.gov.ar/service/informarCAEANoUtilizadoPtoVta
p539
sg21
(dp540
S'informarCAEANoUtilizadoPtoVtaRequest'
p541
g24
(g25
g26
(dp542
VauthRequest
p543
g35
sVnumeroPuntoVenta
p544
g52
sVCAEA
p545
g33
stRp546
(dp547
g37
I00
sg38
(lp548
g543
ag545
ag544
asbssg8
V
sg43
g537
sg44
(dp549
S'informarCAEANoUtilizadoPtoVtaResponse'
p550
g24
(g25
g26
(dp551
Vevento
p552
g58
sVresultado
p553
g31
sVnumeroPuntoVenta
p554
g52
sVfechaProceso
p555
g67
sVarrayErrores
p556
(lp557
g99
asVCAEA
p558
g33
stRp559
(dp560
g37
I00
sg38
(lp561
g553
ag555
ag558
ag554
ag556
ag552
asbsssVdummy
p562
(dp563
g19
Vhttp://impl.service.wsmtxca.afip.gov.ar/service/dummy
p564
sg21
(dp565
sg8
V
sg43
g562
sg44
(dp566
S'dummyResponse'
p567
g24
(g25
g26
(dp568
Vappserver
p569
g31
sVauthserver
p570
g31
sVdbserver
p571
g31
stRp572
(dp573
g37
I00
sg38
(lp574
g569
ag570
ag571
asbsssVconsultarCotizacionMoneda
p575
(dp576
g19
Vhttp://impl.service.wsmtxca.afip.gov.ar/service/consultarCotizacionMoneda
p577
sg21
(dp578
S'consultarCotizacionMonedaRequest'
p579
g24
(g25
g26
(dp580
VauthRequest
p581
g35
sVcodigoMoneda
p582
g31
stRp583
(dp584
g37
I00
sg38
(lp585
g581
ag582
asbssg8
V
sg43
g575
sg44
(dp586
S'consultarCotizacionMonedaResponse'
p587
g24
(g25
g26
(dp588
Vevento
p589
g58
sVarrayErrores
p590
(lp591
g99
asVcotizacionMoneda
p592
g161
stRp593
(dp594
g37
I00
sg38
(lp595
g592
ag590
ag589
asbsssVsolicitarCAEA
p596
(dp597
g19
Vhttp://impl.service.wsmtxca.afip.gov.ar/service/solicitarCAEA
p598
sg21
(dp599
S'solicitarCAEARequest'
p600
g24
(g25
g26
(dp601
VauthRequest
p602
g35
sVsolicitudCAEA
p603
g24
(g25
g26
(dp604
Vperiodo
p605
g55
sVorden
p606
g52
stRp607
(dp608
g37
I00
sg38
(lp609
g605
ag606
asbstRp610
(dp611
g37
I00
sg38
(lp612
g602
ag603
asbssg8
V
sg43
g596
sg44
(dp613
S'solicitarCAEAResponse'
p614
g24
(g25
g26
(dp615
Vevento
p616
g58
sVCAEAResponse
p617
g114
sVarrayErrores
p618
(lp619
g99
astRp620
(dp621
g37
I00
sg38
(lp622
g617
ag618
ag616
asbsssVconsultarTiposTributo
p623
(dp624
g19
Vhttp://impl.service.wsmtxca.afip.gov.ar/service/consultarTiposTributo
p625
sg21
(dp626
S'consultarTiposTributoRequest'
p627
g24
(g25
g26
(dp628
VauthRequest
p629
g35
stRp630
(dp631
g37
I00
sg38
(lp632
g629
asbssg8
V
sg43
g623
sg44
(dp633
S'consultarTiposTributoResponse'
p634
g24
(g25
g26
(dp635
Vevento
p636
g58
sVarrayTiposTributo
p637
(lp638
g99
astRp639
(dp640
g37
I00
sg38
(lp641
g637
ag636
asbsssVconsultarPtosVtaCAEANoInformados
p642
(dp643
g19
Vhttp://impl.service.wsmtxca.afip.gov.ar/service/consultarPtosVtaCAEANoInformados
p644
sg21
(dp645
S'consultarPtosVtaCAEANoInformadosRequest'
p646
g24
(g25
g26
(dp647
VauthRequest
p648
g35
sVCAEA
p649
g33
stRp650
(dp651
g37
I00
sg38
(lp652
g648
ag649
asbssg8
V
sg43
g642
sg44
(dp653
S'consultarPtosVtaCAEANoInformadosResponse'
p654
g24
(g25
g26
(dp655
Vevento
p656
g58
sVarrayErrores
p657
(lp658
g99
asVarrayPuntosVenta
p659
(lp660
g73
astRp661
(dp662
g37
I00
sg38
(lp663
g659
ag657
ag656
asbsssVinformarCAEANoUtilizado
p664
(dp665
g19
Vhttp://impl.service.wsmtxca.afip.gov.ar/service/informarCAEANoUtilizado
p666
sg21
(dp667
S'informarCAEANoUtilizadoRequest'
p668
g24
(g25
g26
(dp669
VauthRequest
p670
g35
sVCAEA
p671
g33
stRp672
(dp673
g37
I00
sg38
(lp674
g670
ag671
asbssg8
V
sg43
g664
sg44
(dp675
S'informarCAEANoUtilizadoResponse'
p676
g24
(g25
g26
(dp677
Vevento
p678
g58
sVresultado
p679
g31
sVarrayErrores
p680
(lp681
g99
asVCAEA
p682
g33
sVfechaProceso
p683
g67
stRp684
(dp685
g37
I00
sg38
(lp686
g679
ag683
ag682
ag680
ag678
asbsssVconsultarPuntosVentaCAE
p687
(dp688
g19
Vhttp://impl.service.wsmtxca.afip.gov.ar/service/consultarPuntosVentaCAE
p689
sg21
(dp690
S'consultarPuntosVentaCAERequest'
p691
g24
(g25
g26
(dp692
VauthRequest
p693
g35
stRp694
(dp695
g37
I00
sg38
(lp696
g693
asbssg8
V
sg43
g687
sg44
(dp697
S'consultarPuntosVentaCAEResponse'
p698
g24
(g25
g26
(dp699
g48
g58
sg61
g62
stRp700
(dp701
g37
I00
sg38
(lp702
g61
ag48
asbsssVconsultarComprobante
p703
(dp704
g19
Vhttp://impl.service.wsmtxca.afip.gov.ar/service/consultarComprobante
p705
sg21
(dp706
S'consultarComprobanteRequest'
p707
g24
(g25
g26
(dp708
VauthRequest
p709
g35
sVconsultaComprobanteRequest
p710
g24
(g25
g26
(dp711
VnumeroComprobante
p712
g33
sVnumeroPuntoVenta
p713
g52
sVcodigoTipoComprobante
p714
g52
stRp715
(dp716
g37
I00
sg38
(lp717
g714
ag713
ag712
asbstRp718
(dp719
g37
I00
sg38
(lp720
g709
ag710
asbssg8
V
sg43
g703
sg44
(dp721
S'consultarComprobanteResponse'
p722
g24
(g25
g26
(dp723
VarrayObservaciones
p724
(lp725
g99
asVcomprobante
p726
g256
sVarrayErrores
p727
(lp728
g99
asVevento
p729
g58
stRp730
(dp731
g37
I00
sg38
(lp732
g726
ag724
ag727
ag729
asbsssVconsultarTiposDatosAdicionales
p733
(dp734
g19
Vhttp://impl.service.wsmtxca.afip.gov.ar/service/consultarTiposDatosAdicionales
p735
sg21
(dp736
S'consultarTiposDatosAdicionalesRequest'
p737
g24
(g25
g26
(dp738
VauthRequest
p739
g35
stRp740
(dp741
g37
I00
sg38
(lp742
g739
asbssg8
V
sg43
g733
sg44
(dp743
S'consultarTiposDatosAdicionalesResponse'
p744
g24
(g25
g26
(dp745
VarrayTiposDatosAdicionales
p746
(lp747
g99
asVevento
p748
g58
stRp749
(dp750
g37
I00
sg38
(lp751
g746
ag748
asbssssS'location'
p752
Vhttps://fwshomo.afip.gov.ar/wsmtxca/services/MTXCAService
p753
sS'service_name'
p754
g6
sS'soap_uri'
p755
Vhttp://schemas.xmlsoap.org/wsdl/soap/
p756
sS'soap_ver'
p757
S'soap11'
p758
sS'transport'
p759
Vhttp://schemas.xmlsoap.org/soap/http
p760
sssssS'version'
p761
S'1.03f'
p762
sS'namespace'
p763
Vhttp://impl.service.wsmtxca.afip.gov.ar/service/
p764
sg8
V
s.